ccopy_reg
_reconstructor
p0
(cargparse
Namespace
p1
c__builtin__
object
p2
Ntp3
Rp4
(dp5
S'bptt_length'
p6
I50
sS'data_scale'
p7
I1000
sS'constraint_factor'
p8
F0.02
sS'summary_dir'
p9
S'summary'
p10
sS'learning_rate'
p11
F0.001
sS'num_layers'
p12
I2
sS'num_mixture'
p13
I2
sS'batch_size'
p14
I10
sS'load_model'
p15
NsS'decay_rate'
p16
F1.0
sS'max_grad_norm'
p17
F1.0
sS'dim_rec'
p18
I16
sS'model_dir'
p19
S'checkpoints_rf20_16'
p20
sS'num_epochs'
p21
I200
sS'loss_form'
p22
S'mse'
p23
sS'save_every'
p24
I10
sb.